; Function Attrs: nounwind uwtable
define dso_local void @DropCachedPlan(ptr noundef captures(none) initializes((0, 4)) %0) local_unnamed_addr #0 {
  %2 = getelementptr inbounds nuw i8, ptr %0, i64 146
  %3 = load i8, ptr %2, align 2, !range !4, !noundef !5
  %4 = trunc nuw i8 %3 to i1
  br i1 %4, label %5, label %12

5:                                                ; preds = %1
  %6 = getelementptr inbounds nuw i8, ptr %0, i64 152
  %7 = getelementptr inbounds nuw i8, ptr %0, i64 160
  %8 = load ptr, ptr %7, align 8
  %9 = load ptr, ptr %6, align 8
  %10 = getelementptr inbounds nuw i8, ptr %9, i64 8
  store ptr %8, ptr %10, align 8
  %11 = load ptr, ptr %6, align 8
  store ptr %11, ptr %8, align 8
  store i8 0, ptr %2, align 2
  br label %12

12:                                               ; preds = %5, %1
  %13 = getelementptr inbounds nuw i8, ptr %0, i64 136
  %14 = load ptr, ptr %13, align 8
  %.not.i = icmp eq ptr %14, null
  br i1 %.not.i, label %ReleaseGenericPlan.exit, label %15

15:                                               ; preds = %12
  store ptr null, ptr %13, align 8
  %16 = getelementptr inbounds nuw i8, ptr %14, i64 36
  %17 = load i32, ptr %16, align 4
  %18 = add i32 %17, -1
  store i32 %18, ptr %16, align 4
  %19 = icmp eq i32 %18, 0
  br i1 %19, label %20, label %ReleaseGenericPlan.exit

20:                                               ; preds = %15
  store i32 0, ptr %14, align 8
  %21 = getelementptr inbounds nuw i8, ptr %14, i64 16
  %22 = load i8, ptr %21, align 8, !range !4, !noundef !5
  %23 = trunc nuw i8 %22 to i1
  br i1 %23, label %ReleaseGenericPlan.exit, label %24

24:                                               ; preds = %20
  %25 = getelementptr inbounds nuw i8, ptr %14, i64 40
  %26 = load ptr, ptr %25, align 8
  tail call void @MemoryContextDelete(ptr noundef %26) #9
  br label %ReleaseGenericPlan.exit

ReleaseGenericPlan.exit:                          ; preds = %12, %15, %20, %24
  store i32 0, ptr %0, align 8
  %27 = getelementptr inbounds nuw i8, ptr %0, i64 144
  %28 = load i8, ptr %27, align 8, !range !4, !noundef !5
  %29 = trunc nuw i8 %28 to i1
  br i1 %29, label %33, label %30

30:                                               ; preds = %ReleaseGenericPlan.exit
  %31 = getelementptr inbounds nuw i8, ptr %0, i64 80
  %32 = load ptr, ptr %31, align 8
  tail call void @MemoryContextDelete(ptr noundef %32) #9
  br label %33

33:                                               ; preds = %30, %ReleaseGenericPlan.exit
  ret void
}